; Function Attrs: nounwind uwtable
define hidden void @zif_memory_get_peak_usage(ptr noundef %0, ptr nocapture noundef writeonly %1) local_unnamed_addr #0 {
  %3 = alloca i8, align 1
  store i8 0, ptr %3, align 1
  %4 = getelementptr inbounds i8, ptr %0, i64 44
  %5 = load i32, ptr %4, align 4
  %6 = icmp ugt i32 %5, 1
  br i1 %6, label %7, label %8

7:                                                ; preds = %2
  tail call void @zend_wrong_parameters_count_error(i32 noundef 0, i32 noundef 1) #12
  br label %.thread89

8:                                                ; preds = %2
  %9 = icmp eq i32 %5, 0
  br i1 %9, label %.thread82, label %10

10:                                               ; preds = %8
  %11 = getelementptr inbounds i8, ptr %0, i64 88
  %12 = load i8, ptr %11, align 8
  switch i8 %12, label %14 [
    i8 3, label %.thread78
    i8 2, label %13
  ]

13:                                               ; preds = %10
  br label %.thread78

.thread78:                                        ; preds = %13, %10
  %storemerge = phi i8 [ 0, %13 ], [ 1, %10 ]
  store i8 %storemerge, ptr %3, align 1
  br label %.thread82

14:                                               ; preds = %10
  %15 = getelementptr inbounds i8, ptr %0, i64 80
  %16 = call zeroext i1 @zend_parse_arg_bool_slow(ptr noundef nonnull %15, ptr noundef nonnull %3, i32 noundef 1) #12
  %.fr = freeze i1 %16
  br i1 %.fr, label %..thread82_crit_edge, label %.thread89

..thread82_crit_edge:                             ; preds = %14
  %.pre = load i8, ptr %3, align 1
  br label %.thread82

.thread89:                                        ; preds = %14, %7
  %.05998 = phi i32 [ 1, %7 ], [ 9, %14 ]
  %.06097 = phi i32 [ 0, %7 ], [ 1, %14 ]
  %.06196 = phi i32 [ 0, %7 ], [ 2, %14 ]
  %.06295 = phi ptr [ null, %7 ], [ %15, %14 ]
  call void @zend_wrong_parameter_error(i32 noundef %.05998, i32 noundef %.06097, ptr noundef null, i32 noundef %.06196, ptr noundef %.06295) #12
  br label %22

.thread82:                                        ; preds = %..thread82_crit_edge, %.thread78, %8
  %17 = phi i8 [ %.pre, %..thread82_crit_edge ], [ %storemerge, %.thread78 ], [ 0, %8 ]
  %18 = and i8 %17, 1
  %19 = icmp ne i8 %18, 0
  %20 = call i64 @zend_memory_peak_usage(i1 noundef zeroext %19) #12
  store i64 %20, ptr %1, align 8
  %21 = getelementptr inbounds i8, ptr %1, i64 8
  store i32 4, ptr %21, align 8
  br label %22

22:                                               ; preds = %.thread82, %.thread89
  ret void
}